target datalayout = "e-m:e-p270:32:32-p271:32:32-p272:64:64-i64:64-i128:128-f80:128-n8:16:32:64-S128"
target triple = "x86_64-unknown-linux-gnu"

%"struct.llvh::ItaniumPartialDemangler" = type { ptr, ptr }

; Function Attrs: mustprogress nounwind uwtable
define hidden void @_ZN4llvh23ItaniumPartialDemanglerC2EOS0_(ptr noundef nonnull align 8 dereferenceable(16) %this, ptr noundef nonnull align 8 dereferenceable(16) %Other) unnamed_addr #0 align 2 {
entry:
  %this.addr = alloca ptr, align 8
  %Other.addr = alloca ptr, align 8
  store ptr %this, ptr %this.addr, align 8
  store ptr %Other, ptr %Other.addr, align 8
  %this1 = load ptr, ptr %this.addr, align 8
  %RootNode = getelementptr inbounds %"struct.llvh::ItaniumPartialDemangler", ptr %this1, i32 0, i32 0
  %0 = load ptr, ptr %Other.addr, align 8
  %RootNode2 = getelementptr inbounds %"struct.llvh::ItaniumPartialDemangler", ptr %0, i32 0, i32 0
  %1 = load ptr, ptr %RootNode2, align 8
  store ptr %1, ptr %RootNode, align 8
  %Context = getelementptr inbounds %"struct.llvh::ItaniumPartialDemangler", ptr %this1, i32 0, i32 1
  %2 = load ptr, ptr %Other.addr, align 8
  %Context3 = getelementptr inbounds %"struct.llvh::ItaniumPartialDemangler", ptr %2, i32 0, i32 1
  %3 = load ptr, ptr %Context3, align 8
  store ptr %3, ptr %Context, align 8
  %4 = load ptr, ptr %Other.addr, align 8
  %RootNode4 = getelementptr inbounds %"struct.llvh::ItaniumPartialDemangler", ptr %4, i32 0, i32 0
  store ptr null, ptr %RootNode4, align 8
  %5 = load ptr, ptr %Other.addr, align 8
  %Context5 = getelementptr inbounds %"struct.llvh::ItaniumPartialDemangler", ptr %5, i32 0, i32 1
  store ptr null, ptr %Context5, align 8
  ret void
}