; Function Attrs: mustprogress nofree norecurse nosync nounwind willreturn memory(argmem: readwrite) uwtable
define hidden void @_ZN4llvh23ItaniumPartialDemanglerC2EOS0_(ptr nocapture noundef nonnull writeonly align 8 dereferenceable(16) %this, ptr nocapture noundef nonnull align 8 dereferenceable(16) %Other) unnamed_addr #5 align 2 {
entry:
  %0 = load ptr, ptr %Other, align 8
  store ptr %0, ptr %this, align 8
  %Context = getelementptr inbounds i8, ptr %this, i64 8
  %Context3 = getelementptr inbounds i8, ptr %Other, i64 8
  %1 = load ptr, ptr %Context3, align 8
  store ptr %1, ptr %Context, align 8
  tail call void @llvm.memset.p0.i64(ptr noundef nonnull align 8 dereferenceable(16) %Other, i8 0, i64 16, i1 false)
  ret void
}